target datalayout = "e-m:e-p270:32:32-p271:32:32-p272:64:64-i64:64-i128:128-f80:128-n8:16:32:64-S128"
target triple = "x86_64-pc-linux-gnu"

%struct._lv_freetype_font_dsc_t = type { i32, %struct._lv_font_t, i32, i32, i32, ptr, ptr, ptr, ptr }
%struct._lv_font_t = type { ptr, ptr, ptr, i32, i32, i8, i8, i8, ptr, ptr, ptr }
%struct._lv_freetype_cache_node_t = type { ptr, i32, i32, i32, ptr, i32, ptr, ptr }
%struct.lv_font_glyph_dsc_t = type { ptr, i16, i16, i16, i16, i16, i32, i8, %union.anon, ptr }
%union.anon = type { ptr }

; Function Attrs: nounwind uwtable
define internal void @freetype_release_glyph_cb(ptr noundef %0, ptr noundef %1) #0 {
  %3 = alloca ptr, align 8
  %4 = alloca ptr, align 8
  %5 = alloca ptr, align 8
  %6 = alloca i32, align 4
  store ptr %0, ptr %3, align 8, !tbaa !41
  store ptr %1, ptr %4, align 8, !tbaa !30
  br label %7

7:                                                ; preds = %2
  %8 = load ptr, ptr %3, align 8, !tbaa !41
  %9 = icmp ne ptr %8, null
  br i1 %9, label %14, label %10

10:                                               ; preds = %7
  br label %11

11:                                               ; preds = %10
  br label %12

12:                                               ; preds = %11
  br label %13

13:                                               ; preds = %12, %13
  br label %13

14:                                               ; preds = %7
  br label %15

15:                                               ; preds = %14
  call void @llvm.lifetime.start.p0(i64 8, ptr %5) #5
  %16 = load ptr, ptr %3, align 8, !tbaa !41
  %17 = getelementptr inbounds nuw %struct._lv_font_t, ptr %16, i32 0, i32 8
  %18 = load ptr, ptr %17, align 8, !tbaa !42
  store ptr %18, ptr %5, align 8, !tbaa !14
  %19 = load ptr, ptr %4, align 8, !tbaa !30
  %20 = getelementptr inbounds nuw %struct.lv_font_glyph_dsc_t, ptr %19, i32 0, i32 9
  %21 = load ptr, ptr %20, align 8, !tbaa !45
  %22 = icmp eq ptr %21, null
  br i1 %22, label %23, label %24

23:                                               ; preds = %15
  store i32 1, ptr %6, align 4
  br label %35

24:                                               ; preds = %15
  %25 = load ptr, ptr %5, align 8, !tbaa !14
  %26 = getelementptr inbounds nuw %struct._lv_freetype_font_dsc_t, ptr %25, i32 0, i32 6
  %27 = load ptr, ptr %26, align 8, !tbaa !16
  %28 = getelementptr inbounds nuw %struct._lv_freetype_cache_node_t, ptr %27, i32 0, i32 7
  %29 = load ptr, ptr %28, align 8, !tbaa !46
  %30 = load ptr, ptr %4, align 8, !tbaa !30
  %31 = getelementptr inbounds nuw %struct.lv_font_glyph_dsc_t, ptr %30, i32 0, i32 9
  %32 = load ptr, ptr %31, align 8, !tbaa !45
  call void @lv_cache_release(ptr noundef %29, ptr noundef %32, ptr noundef null)
  %33 = load ptr, ptr %4, align 8, !tbaa !30
  %34 = getelementptr inbounds nuw %struct.lv_font_glyph_dsc_t, ptr %33, i32 0, i32 9
  store ptr null, ptr %34, align 8, !tbaa !45
  store i32 0, ptr %6, align 4
  br label %35

35:                                               ; preds = %24, %23
  call void @llvm.lifetime.end.p0(i64 8, ptr %5) #5
  %36 = load i32, ptr %6, align 4
  switch i32 %36, label %38 [
    i32 0, label %37
    i32 1, label %37
  ]

37:                                               ; preds = %35, %35
  ret void

38:                                               ; preds = %35
  unreachable
}