; Function Attrs: nounwind uwtable
define internal void @freetype_release_glyph_cb(ptr noundef readonly captures(address_is_null) %0, ptr noundef captures(none) %1) #0 {
  %.not = icmp eq ptr %0, null
  br i1 %.not, label %.preheader, label %3

.preheader:                                       ; preds = %2, %.preheader
  br label %.preheader

3:                                                ; preds = %2
  %4 = getelementptr inbounds nuw i8, ptr %1, i64 40
  %5 = load ptr, ptr %4, align 8, !tbaa !79
  %6 = icmp eq ptr %5, null
  br i1 %6, label %14, label %7

7:                                                ; preds = %3
  %8 = getelementptr inbounds nuw i8, ptr %0, i64 40
  %9 = load ptr, ptr %8, align 8, !tbaa !77
  %10 = getelementptr inbounds nuw i8, ptr %9, i64 96
  %11 = load ptr, ptr %10, align 8, !tbaa !16
  %12 = getelementptr inbounds nuw i8, ptr %11, i64 48
  %13 = load ptr, ptr %12, align 8, !tbaa !78
  tail call void @lv_cache_release(ptr noundef %13, ptr noundef nonnull %5, ptr noundef null) #9
  store ptr null, ptr %4, align 8, !tbaa !79
  br label %14

14:                                               ; preds = %3, %7
  ret void
}